; Function Attrs: mustprogress uwtable
define void @_ZN3nix23CreateMemoryRegularFileclESt17basic_string_viewIcSt11char_traitsIcEE(ptr nocapture noundef nonnull readonly align 8 dereferenceable(16) %0, i64 %1, ptr %2) unnamed_addr #4 align 2 personality ptr @__gxx_personality_v0 {
  %4 = getelementptr inbounds i8, ptr %0, i64 8
  %5 = load ptr, ptr %4, align 8
  %6 = getelementptr inbounds i8, ptr %5, i64 8
  %7 = getelementptr inbounds i8, ptr %5, i64 16
  %8 = load i64, ptr %7, align 8
  %9 = sub i64 9223372036854775807, %8
  %10 = icmp ult i64 %9, %1
  br i1 %10, label %11, label %_ZNKSt7__cxx1112basic_stringIcSt11char_traitsIcESaIcEE15_M_check_lengthEmmPKc.exit.i.i.i

11:                                               ; preds = %3
  tail call void @_ZSt20__throw_length_errorPKc(ptr noundef nonnull @.str.22) #24
  unreachable

_ZNKSt7__cxx1112basic_stringIcSt11char_traitsIcESaIcEE15_M_check_lengthEmmPKc.exit.i.i.i: ; preds = %3
  %12 = add i64 %8, %1
  %13 = load ptr, ptr %6, align 8
  %14 = getelementptr inbounds i8, ptr %5, i64 24
  %15 = icmp eq ptr %13, %14
  br i1 %15, label %16, label %_ZNKSt7__cxx1112basic_stringIcSt11char_traitsIcESaIcEE8capacityEv.exit.i.i.i.i

16:                                               ; preds = %_ZNKSt7__cxx1112basic_stringIcSt11char_traitsIcESaIcEE15_M_check_lengthEmmPKc.exit.i.i.i
  %17 = icmp ult i64 %8, 16
  tail call void @llvm.assume(i1 %17)
  br label %_ZNKSt7__cxx1112basic_stringIcSt11char_traitsIcESaIcEE8capacityEv.exit.i.i.i.i

_ZNKSt7__cxx1112basic_stringIcSt11char_traitsIcESaIcEE8capacityEv.exit.i.i.i.i: ; preds = %16, %_ZNKSt7__cxx1112basic_stringIcSt11char_traitsIcESaIcEE15_M_check_lengthEmmPKc.exit.i.i.i
  %18 = load i64, ptr %14, align 8
  %19 = select i1 %15, i64 15, i64 %18
  %.not.i.i.i.i = icmp ugt i64 %12, %19
  br i1 %.not.i.i.i.i, label %26, label %20

20:                                               ; preds = %_ZNKSt7__cxx1112basic_stringIcSt11char_traitsIcESaIcEE8capacityEv.exit.i.i.i.i
  %.not8.i.i.i.i = icmp eq i64 %1, 0
  br i1 %.not8.i.i.i.i, label %_ZNSt7__cxx1112basic_stringIcSt11char_traitsIcESaIcEEpLISt17basic_string_viewIcS2_EEENSt9enable_ifIXsr6__and_ISt14is_convertibleIRKT_S7_ESt6__not_IS9_IPSB_PKS4_EESE_IS9_ISC_PKcEEEE5valueERS4_E4typeESC_.exit, label %21

21:                                               ; preds = %20
  %22 = getelementptr inbounds i8, ptr %13, i64 %8
  %cond.i.i.i.i = icmp eq i64 %1, 1
  br i1 %cond.i.i.i.i, label %23, label %25

23:                                               ; preds = %21
  %24 = load i8, ptr %2, align 1
  store i8 %24, ptr %22, align 1
  br label %_ZNSt7__cxx1112basic_stringIcSt11char_traitsIcESaIcEEpLISt17basic_string_viewIcS2_EEENSt9enable_ifIXsr6__and_ISt14is_convertibleIRKT_S7_ESt6__not_IS9_IPSB_PKS4_EESE_IS9_ISC_PKcEEEE5valueERS4_E4typeESC_.exit

25:                                               ; preds = %21
  tail call void @llvm.memcpy.p0.p0.i64(ptr align 1 %22, ptr align 1 %2, i64 %1, i1 false)
  br label %_ZNSt7__cxx1112basic_stringIcSt11char_traitsIcESaIcEEpLISt17basic_string_viewIcS2_EEENSt9enable_ifIXsr6__and_ISt14is_convertibleIRKT_S7_ESt6__not_IS9_IPSB_PKS4_EESE_IS9_ISC_PKcEEEE5valueERS4_E4typeESC_.exit

26:                                               ; preds = %_ZNKSt7__cxx1112basic_stringIcSt11char_traitsIcESaIcEE8capacityEv.exit.i.i.i.i
  tail call void @_ZNSt7__cxx1112basic_stringIcSt11char_traitsIcESaIcEE9_M_mutateEmmPKcm(ptr noundef nonnull align 8 dereferenceable(32) %6, i64 noundef %8, i64 noundef 0, ptr noundef %2, i64 noundef %1)
  br label %_ZNSt7__cxx1112basic_stringIcSt11char_traitsIcESaIcEEpLISt17basic_string_viewIcS2_EEENSt9enable_ifIXsr6__and_ISt14is_convertibleIRKT_S7_ESt6__not_IS9_IPSB_PKS4_EESE_IS9_ISC_PKcEEEE5valueERS4_E4typeESC_.exit

_ZNSt7__cxx1112basic_stringIcSt11char_traitsIcESaIcEEpLISt17basic_string_viewIcS2_EEENSt9enable_ifIXsr6__and_ISt14is_convertibleIRKT_S7_ESt6__not_IS9_IPSB_PKS4_EESE_IS9_ISC_PKcEEEE5valueERS4_E4typeESC_.exit: ; preds = %20, %23, %25, %26
  store i64 %12, ptr %7, align 8
  %27 = load ptr, ptr %6, align 8
  %28 = getelementptr inbounds i8, ptr %27, i64 %12
  store i8 0, ptr %28, align 1
  ret void
}